; ModuleID = 'source-C-CXX/2/2983.c'
source_filename = "source-C-CXX/2/2983.c"
target datalayout = "e-m:e-p270:32:32-p271:32:32-p272:64:64-i64:64-f80:128-n8:16:32:64-S128"
target triple = "x86_64-pc-linux-gnu"

@.str = private unnamed_addr constant [5 x i8] c"%d%d\00", align 1
@.str.1 = private unnamed_addr constant [3 x i8] c"%d\00", align 1
@str = private unnamed_addr constant [4 x i8] c"yes\00", align 1
@str.4 = private unnamed_addr constant [3 x i8] c"no\00", align 1

; Function Attrs: nofree nounwind sspstrong uwtable
define dso_local void @main() local_unnamed_addr #0 {
  %1 = alloca [1001 x i32], align 16
  %2 = alloca i32, align 4
  %3 = alloca i32, align 4
  %4 = bitcast [1001 x i32]* %1 to i8*
  call void @llvm.lifetime.start.p0i8(i64 4004, i8* nonnull %4) #4
  %5 = bitcast i32* %2 to i8*
  call void @llvm.lifetime.start.p0i8(i64 4, i8* nonnull %5) #4
  %6 = bitcast i32* %3 to i8*
  call void @llvm.lifetime.start.p0i8(i64 4, i8* nonnull %6) #4
  %7 = call i32 (i8*, ...) @__isoc99_scanf(i8* getelementptr inbounds ([5 x i8], [5 x i8]* @.str, i64 0, i64 0), i32* nonnull %3, i32* nonnull %2)
  %8 = load i32, i32* %3, align 4, !tbaa !5
  %9 = icmp sgt i32 %8, 0
  br i1 %9, label %36, label %46

10:                                               ; preds = %36
  %11 = load i32, i32* %2, align 4
  %12 = icmp sgt i32 %41, 0
  br i1 %12, label %13, label %46

13:                                               ; preds = %10
  %14 = zext i32 %41 to i64
  %15 = zext i32 %41 to i64
  br label %16

16:                                               ; preds = %13, %32
  %17 = phi i64 [ 0, %13 ], [ %33, %32 ]
  %18 = phi i1 [ true, %13 ], [ %34, %32 ]
  %19 = getelementptr inbounds [1001 x i32], [1001 x i32]* %1, i64 0, i64 %17
  %20 = load i32, i32* %19, align 4, !tbaa !5
  br label %23

21:                                               ; preds = %23
  %22 = icmp eq i64 %31, %15
  br i1 %22, label %32, label %23, !llvm.loop !9

23:                                               ; preds = %16, %21
  %24 = phi i64 [ 0, %16 ], [ %31, %21 ]
  %25 = getelementptr inbounds [1001 x i32], [1001 x i32]* %1, i64 0, i64 %24
  %26 = load i32, i32* %25, align 4, !tbaa !5
  %27 = add nsw i32 %26, %20
  %28 = icmp ne i32 %27, %11
  %29 = icmp eq i32 %20, %26
  %30 = or i1 %29, %28
  %31 = add nuw nsw i64 %24, 1
  br i1 %30, label %21, label %44

32:                                               ; preds = %21
  %33 = add nuw nsw i64 %17, 1
  %34 = icmp ult i64 %33, %14
  %35 = icmp eq i64 %33, %15
  br i1 %35, label %46, label %16, !llvm.loop !11

36:                                               ; preds = %0, %36
  %37 = phi i64 [ %40, %36 ], [ 0, %0 ]
  %38 = getelementptr inbounds [1001 x i32], [1001 x i32]* %1, i64 0, i64 %37
  %39 = call i32 (i8*, ...) @__isoc99_scanf(i8* getelementptr inbounds ([3 x i8], [3 x i8]* @.str.1, i64 0, i64 0), i32* nonnull %38)
  %40 = add nuw nsw i64 %37, 1
  %41 = load i32, i32* %3, align 4, !tbaa !5
  %42 = sext i32 %41 to i64
  %43 = icmp slt i64 %40, %42
  br i1 %43, label %36, label %10, !llvm.loop !12

44:                                               ; preds = %23
  %45 = select i1 %18, i8* getelementptr inbounds ([4 x i8], [4 x i8]* @str, i64 0, i64 0), i8* getelementptr inbounds ([3 x i8], [3 x i8]* @str.4, i64 0, i64 0)
  br label %46

46:                                               ; preds = %32, %44, %10, %0
  %47 = phi i8* [ getelementptr inbounds ([3 x i8], [3 x i8]* @str.4, i64 0, i64 0), %0 ], [ getelementptr inbounds ([3 x i8], [3 x i8]* @str.4, i64 0, i64 0), %10 ], [ %45, %44 ], [ getelementptr inbounds ([3 x i8], [3 x i8]* @str.4, i64 0, i64 0), %32 ]
  %48 = call i32 @puts(i8* nonnull dereferenceable(1) %47)
  call void @llvm.lifetime.end.p0i8(i64 4, i8* nonnull %6) #4
  call void @llvm.lifetime.end.p0i8(i64 4, i8* nonnull %5) #4
  call void @llvm.lifetime.end.p0i8(i64 4004, i8* nonnull %4) #4
  ret void
}

; Function Attrs: argmemonly mustprogress nofree nosync nounwind willreturn
declare void @llvm.lifetime.start.p0i8(i64 immarg, i8* nocapture) #1

; Function Attrs: nofree nounwind
declare noundef i32 @__isoc99_scanf(i8* nocapture noundef readonly, ...) local_unnamed_addr #2

; Function Attrs: argmemonly mustprogress nofree nosync nounwind willreturn
declare void @llvm.lifetime.end.p0i8(i64 immarg, i8* nocapture) #1

; Function Attrs: nofree nounwind
declare noundef i32 @puts(i8* nocapture noundef readonly) local_unnamed_addr #3


!llvm.module.flags = !{!0, !1, !2, !3}
!llvm.ident = !{!4}

!0 = !{i32 1, !"wchar_size", i32 4}
!1 = !{i32 7, !"PIC Level", i32 2}
!2 = !{i32 7, !"PIE Level", i32 2}
!3 = !{i32 7, !"uwtable", i32 1}
!4 = !{!"clang version 13.0.0"}
!5 = !{!6, !6, i64 0}
!6 = !{!"int", !7, i64 0}
!7 = !{!"omnipotent char", !8, i64 0}
!8 = !{!"Simple C/C++ TBAA"}
!9 = distinct !{!9, !10}
!10 = !{!"llvm.loop.mustprogress"}
!11 = distinct !{!11, !10}
!12 = distinct !{!12, !10}
